target datalayout = "e-m:e-p270:32:32-p271:32:32-p272:64:64-i64:64-i128:128-f80:128-n8:16:32:64-S128"
target triple = "x86_64-pc-linux-gnu"

%struct.SDL_WindowData = type { ptr, ptr, ptr, ptr, ptr, ptr, ptr, %union.anon, i32, i32, i32, i32, ptr, ptr, ptr, ptr, ptr, ptr, ptr, ptr, ptr, ptr, ptr, ptr, ptr, ptr, %struct.SDL_AtomicInt, ptr, i32, ptr, double, ptr, i32, i32, i32, i32, %struct.anon.3, %struct.anon.4, %struct.anon.5, %struct.anon.6, %struct.anon.7, %struct.anon.8, %struct.anon.9, i32, i32, i32, i64, i32, i32, i8, i8, i8, i8, i8, i8, i8, i8, i8, i8, i8, i8, i8, i8, i32, %struct.wl_list }
%union.anon = type { %struct.anon }
%struct.anon = type { ptr, %union.anon.0, i8 }
%union.anon.0 = type { %struct.anon.2 }
%struct.anon.2 = type { ptr, ptr }
%struct.SDL_AtomicInt = type { i32 }
%struct.anon.3 = type { double, double }
%struct.anon.4 = type { i32, i32, i32, i32 }
%struct.anon.5 = type { i32, i32, i32, i32 }
%struct.anon.6 = type { i32, i32 }
%struct.anon.7 = type { i32, i32 }
%struct.anon.8 = type { i32, i32 }
%struct.anon.9 = type { i32, i32, i8 }
%struct.wl_list = type { ptr, ptr }
%struct.SDL_Window = type { i32, ptr, ptr, i32, i32, i32, i32, i32, i32, i32, i32, float, float, i32, i32, i64, i64, float, i8, i8, i32, i32, %struct.SDL_Rect, %struct.SDL_Rect, %struct.SDL_Rect, i8, i8, i8, %struct.SDL_DisplayMode, %struct.SDL_DisplayMode, %struct.SDL_HDROutputProperties, float, ptr, i8, i8, i8, i8, i8, i8, i8, i8, i8, i32, i32, i32, i32, %struct.SDL_Rect, i32, i8, %struct.SDL_Rect, i32, %struct.SDL_Rect, ptr, ptr, i32, float, i32, i32, ptr, ptr, ptr, ptr, ptr, ptr, ptr, ptr, ptr }
%struct.SDL_DisplayMode = type { i32, i32, i32, i32, float, float, i32, i32, ptr }
%struct.SDL_HDROutputProperties = type { float, float }
%struct.SDL_Rect = type { i32, i32, i32, i32 }
%struct.SDL_DisplayData = type { ptr, ptr, ptr, ptr, ptr, double, i32, i32, i32, i32, i32, i32, i32, i32, i32, i32, i32, i32, i8, i8, i8, %struct.SDL_HDROutputProperties, i32, %struct.SDL_VideoDisplay, i32, ptr }
%struct.SDL_VideoDisplay = type { i32, ptr, i32, i32, ptr, %struct.SDL_DisplayMode, ptr, i32, i32, float, %struct.SDL_HDROutputProperties, i8, ptr, ptr, i32, ptr }
%struct.SDL_VideoDevice = type { ptr, ptr, ptr, ptr, ptr, ptr, ptr, ptr, ptr, ptr, ptr, ptr, ptr, ptr, ptr, ptr, ptr, ptr, ptr, ptr, ptr, ptr, ptr, ptr, ptr, ptr, ptr, ptr, ptr, ptr, ptr, ptr, ptr, ptr, ptr, ptr, ptr, ptr, ptr, ptr, ptr, ptr, ptr, ptr, ptr, ptr, ptr, ptr, ptr, ptr, ptr, ptr, ptr, ptr, ptr, ptr, ptr, ptr, ptr, ptr, ptr, ptr, ptr, ptr, ptr, ptr, ptr, ptr, ptr, ptr, ptr, ptr, ptr, ptr, ptr, ptr, ptr, ptr, ptr, ptr, ptr, ptr, ptr, ptr, ptr, ptr, ptr, ptr, ptr, ptr, ptr, ptr, ptr, ptr, ptr, ptr, ptr, i64, i8, i8, i8, ptr, i32, ptr, %struct.SDL_Rect, ptr, ptr, i32, ptr, ptr, ptr, ptr, i64, ptr, i8, i32, i32, %struct.anon.10, ptr, ptr, ptr, ptr, ptr, ptr, %struct.SDL_AtomicInt, %struct.SDL_AtomicInt, i8, %struct.anon.11, ptr, ptr, ptr, ptr, ptr }
%struct.anon.10 = type { i32, i32, i32, i32, i32, i32, i32, i32, i32, i32, i32, i32, i32, i32, i32, i32, i32, i32, i32, i32, i32, i32, i32, i32, i32, i32, i32, i32, i32, [256 x i8], ptr }
%struct.anon.11 = type { ptr, ptr, i32, [256 x i8], ptr }
%struct.SDL_VideoData = type { i8, ptr, i32, ptr, ptr, ptr, ptr, i32, %struct.anon.12, ptr, ptr, ptr, ptr, ptr, ptr, ptr, ptr, ptr, ptr, ptr, ptr, ptr, ptr, ptr, ptr, ptr, ptr, ptr, ptr, ptr, ptr, %struct.wl_list, ptr, ptr, ptr, ptr, i32, i32, i8, i8 }
%struct.anon.12 = type { ptr }

@WAYLAND_wl_display_roundtrip = external global ptr, align 8

; Function Attrs: nounwind uwtable
define internal void @CommitLibdecorFrame(ptr noundef %0) #0 {
  %2 = alloca ptr, align 8
  store ptr %0, ptr %2, align 8
  ret void
}

; Function Attrs: nounwind uwtable
define internal void @FlushPendingEvents(ptr noundef %0) #0 {
  %2 = alloca ptr, align 8
  %3 = alloca i8, align 1
  %4 = alloca i8, align 1
  store ptr %0, ptr %2, align 8
  call void @llvm.lifetime.start.p0(i64 1, ptr %3) #10
  %5 = load ptr, ptr %2, align 8
  %6 = getelementptr inbounds nuw %struct.SDL_Window, ptr %5, i32 0, i32 36
  %7 = load i8, ptr %6, align 1, !range !5, !noundef !6
  %8 = trunc i8 %7 to i1
  %9 = zext i1 %8 to i8
  store i8 %9, ptr %3, align 1
  call void @llvm.lifetime.start.p0(i64 1, ptr %4) #10
  %10 = load ptr, ptr %2, align 8
  %11 = getelementptr inbounds nuw %struct.SDL_Window, ptr %10, i32 0, i32 37
  %12 = load i8, ptr %11, align 4, !range !5, !noundef !6
  %13 = trunc i8 %12 to i1
  %14 = zext i1 %13 to i8
  store i8 %14, ptr %4, align 1
  br label %15

15:                                               ; preds = %31, %1
  %16 = load ptr, ptr %2, align 8
  %17 = getelementptr inbounds nuw %struct.SDL_Window, ptr %16, i32 0, i32 59
  %18 = load ptr, ptr %17, align 8
  %19 = getelementptr inbounds nuw %struct.SDL_WindowData, ptr %18, i32 0, i32 44
  %20 = load i32, ptr %19, align 8
  %21 = icmp ne i32 %20, 0
  br i1 %21, label %29, label %22

22:                                               ; preds = %15
  %23 = load ptr, ptr %2, align 8
  %24 = getelementptr inbounds nuw %struct.SDL_Window, ptr %23, i32 0, i32 59
  %25 = load ptr, ptr %24, align 8
  %26 = getelementptr inbounds nuw %struct.SDL_WindowData, ptr %25, i32 0, i32 45
  %27 = load i32, ptr %26, align 4
  %28 = icmp ne i32 %27, 0
  br label %29

29:                                               ; preds = %22, %15
  %30 = phi i1 [ true, %15 ], [ %28, %22 ]
  br i1 %30, label %31, label %41

31:                                               ; preds = %29
  %32 = load ptr, ptr @WAYLAND_wl_display_roundtrip, align 8
  %33 = load ptr, ptr %2, align 8
  %34 = getelementptr inbounds nuw %struct.SDL_Window, ptr %33, i32 0, i32 59
  %35 = load ptr, ptr %34, align 8
  %36 = getelementptr inbounds nuw %struct.SDL_WindowData, ptr %35, i32 0, i32 1
  %37 = load ptr, ptr %36, align 8
  %38 = getelementptr inbounds nuw %struct.SDL_VideoData, ptr %37, i32 0, i32 1
  %39 = load ptr, ptr %38, align 8
  %40 = call i32 %32(ptr noundef %39)
  br label %15, !llvm.loop !11

41:                                               ; preds = %29
  %42 = load i8, ptr %3, align 1, !range !5, !noundef !6
  %43 = trunc i8 %42 to i1
  %44 = load ptr, ptr %2, align 8
  %45 = getelementptr inbounds nuw %struct.SDL_Window, ptr %44, i32 0, i32 36
  %46 = zext i1 %43 to i8
  store i8 %46, ptr %45, align 1
  %47 = load i8, ptr %4, align 1, !range !5, !noundef !6
  %48 = trunc i8 %47 to i1
  %49 = load ptr, ptr %2, align 8
  %50 = getelementptr inbounds nuw %struct.SDL_Window, ptr %49, i32 0, i32 37
  %51 = zext i1 %48 to i8
  store i8 %51, ptr %50, align 4
  call void @llvm.lifetime.end.p0(i64 1, ptr %4) #10
  call void @llvm.lifetime.end.p0(i64 1, ptr %3) #10
  ret void
}

; Function Attrs: nounwind uwtable
define hidden i32 @Wayland_SetWindowFullscreen(ptr noundef %0, ptr noundef %1, ptr noundef %2, i32 noundef %3) #0 {
  %5 = alloca i32, align 4
  %6 = alloca ptr, align 8
  %7 = alloca ptr, align 8
  %8 = alloca ptr, align 8
  %9 = alloca i32, align 4
  %10 = alloca ptr, align 8
  %11 = alloca ptr, align 8
  %12 = alloca i32, align 4
  store ptr %0, ptr %6, align 8
  store ptr %1, ptr %7, align 8
  store ptr %2, ptr %8, align 8
  store i32 %3, ptr %9, align 4
  call void @llvm.lifetime.start.p0(i64 8, ptr %10) #10
  %13 = load ptr, ptr %7, align 8
  %14 = getelementptr inbounds nuw %struct.SDL_Window, ptr %13, i32 0, i32 59
  %15 = load ptr, ptr %14, align 8
  store ptr %15, ptr %10, align 8
  call void @llvm.lifetime.start.p0(i64 8, ptr %11) #10
  %16 = load ptr, ptr %8, align 8
  %17 = getelementptr inbounds nuw %struct.SDL_VideoDisplay, ptr %16, i32 0, i32 15
  %18 = load ptr, ptr %17, align 8
  %19 = getelementptr inbounds nuw %struct.SDL_DisplayData, ptr %18, i32 0, i32 1
  %20 = load ptr, ptr %19, align 8
  store ptr %20, ptr %11, align 8
  %21 = load ptr, ptr %10, align 8
  %22 = getelementptr inbounds nuw %struct.SDL_WindowData, ptr %21, i32 0, i32 8
  %23 = load i32, ptr %22, align 8
  %24 = icmp eq i32 %23, 4
  br i1 %24, label %25, label %26

25:                                               ; preds = %4
  store i32 0, ptr %5, align 4
  store i32 1, ptr %12, align 4
  br label %127

26:                                               ; preds = %4
  %27 = load ptr, ptr %10, align 8
  %28 = getelementptr inbounds nuw %struct.SDL_WindowData, ptr %27, i32 0, i32 57
  %29 = load i8, ptr %28, align 8, !range !5, !noundef !6
  %30 = trunc i8 %29 to i1
  br i1 %30, label %31, label %35

31:                                               ; preds = %26
  %32 = load i32, ptr %9, align 4
  %33 = icmp eq i32 %32, 0
  br i1 %33, label %34, label %35

34:                                               ; preds = %31
  store i32 1, ptr %5, align 4
  store i32 1, ptr %12, align 4
  br label %127

35:                                               ; preds = %31, %26
  %36 = load ptr, ptr %10, align 8
  %37 = getelementptr inbounds nuw %struct.SDL_WindowData, ptr %36, i32 0, i32 59
  %38 = load i8, ptr %37, align 2, !range !5, !noundef !6
  %39 = trunc i8 %38 to i1
  br i1 %39, label %40, label %48

40:                                               ; preds = %35
  %41 = load ptr, ptr @WAYLAND_wl_display_roundtrip, align 8
  %42 = load ptr, ptr %6, align 8
  %43 = getelementptr inbounds nuw %struct.SDL_VideoDevice, ptr %42, i32 0, i32 128
  %44 = load ptr, ptr %43, align 8
  %45 = getelementptr inbounds nuw %struct.SDL_VideoData, ptr %44, i32 0, i32 1
  %46 = load ptr, ptr %45, align 8
  %47 = call i32 %41(ptr noundef %46)
  br label %48

48:                                               ; preds = %40, %35
  %49 = load ptr, ptr %10, align 8
  %50 = getelementptr inbounds nuw %struct.SDL_WindowData, ptr %49, i32 0, i32 56
  %51 = load i8, ptr %50, align 1, !range !5, !noundef !6
  %52 = trunc i8 %51 to i1
  br i1 %52, label %53, label %54

53:                                               ; preds = %48
  store i32 1, ptr %5, align 4
  store i32 1, ptr %12, align 4
  br label %127

54:                                               ; preds = %48
  %55 = load ptr, ptr %10, align 8
  %56 = getelementptr inbounds nuw %struct.SDL_WindowData, ptr %55, i32 0, i32 56
  store i8 1, ptr %56, align 1
  %57 = load ptr, ptr %7, align 8
  call void @FlushPendingEvents(ptr noundef %57)
  %58 = load ptr, ptr %10, align 8
  %59 = getelementptr inbounds nuw %struct.SDL_WindowData, ptr %58, i32 0, i32 56
  store i8 0, ptr %59, align 1
  %60 = load ptr, ptr %10, align 8
  %61 = getelementptr inbounds nuw %struct.SDL_WindowData, ptr %60, i32 0, i32 54
  %62 = load i8, ptr %61, align 1, !range !5, !noundef !6
  %63 = trunc i8 %62 to i1
  br i1 %63, label %74, label %64

64:                                               ; preds = %54
  %65 = load i32, ptr %9, align 4
  %66 = icmp eq i32 %65, 2
  br i1 %66, label %67, label %68

67:                                               ; preds = %64
  store i32 2, ptr %5, align 4
  store i32 1, ptr %12, align 4
  br label %127

68:                                               ; preds = %64
  %69 = load i32, ptr %9, align 4
  %70 = icmp eq i32 %69, 0
  br i1 %70, label %71, label %72

71:                                               ; preds = %68
  store i32 1, ptr %5, align 4
  store i32 1, ptr %12, align 4
  br label %127

72:                                               ; preds = %68
  br label %73

73:                                               ; preds = %72
  br label %74

74:                                               ; preds = %73, %54
  %75 = load i32, ptr %9, align 4
  %76 = icmp ne i32 %75, 0
  %77 = xor i1 %76, true
  %78 = xor i1 %77, true
  %79 = zext i1 %78 to i32
  %80 = load ptr, ptr %10, align 8
  %81 = getelementptr inbounds nuw %struct.SDL_WindowData, ptr %80, i32 0, i32 54
  %82 = load i8, ptr %81, align 1, !range !5, !noundef !6
  %83 = trunc i8 %82 to i1
  %84 = zext i1 %83 to i32
  %85 = icmp ne i32 %79, %84
  br i1 %85, label %86, label %102

86:                                               ; preds = %74
  %87 = load i32, ptr %9, align 4
  %88 = icmp ne i32 %87, 0
  %89 = xor i1 %88, true
  %90 = xor i1 %89, true
  %91 = load ptr, ptr %10, align 8
  %92 = getelementptr inbounds nuw %struct.SDL_WindowData, ptr %91, i32 0, i32 58
  %93 = zext i1 %90 to i8
  store i8 %93, ptr %92, align 1
  %94 = load ptr, ptr %7, align 8
  %95 = load i32, ptr %9, align 4
  %96 = icmp ne i32 %95, 0
  br i1 %96, label %97, label %99

97:                                               ; preds = %86
  %98 = load ptr, ptr %11, align 8
  br label %100

99:                                               ; preds = %86
  br label %100

100:                                              ; preds = %99, %97
  %101 = phi ptr [ %98, %97 ], [ null, %99 ]
  call void @SetFullscreen(ptr noundef %94, ptr noundef %101)
  br label %126

102:                                              ; preds = %74
  %103 = load ptr, ptr %10, align 8
  %104 = getelementptr inbounds nuw %struct.SDL_WindowData, ptr %103, i32 0, i32 54
  %105 = load i8, ptr %104, align 1, !range !5, !noundef !6
  %106 = trunc i8 %105 to i1
  br i1 %106, label %107, label %125

107:                                              ; preds = %102
  %108 = load ptr, ptr %10, align 8
  %109 = getelementptr inbounds nuw %struct.SDL_WindowData, ptr %108, i32 0, i32 43
  %110 = load i32, ptr %109, align 4
  %111 = load ptr, ptr %8, align 8
  %112 = getelementptr inbounds nuw %struct.SDL_VideoDisplay, ptr %111, i32 0, i32 0
  %113 = load i32, ptr %112, align 8
  %114 = icmp ne i32 %110, %113
  br i1 %114, label %115, label %120

115:                                              ; preds = %107
  %116 = load ptr, ptr %10, align 8
  %117 = getelementptr inbounds nuw %struct.SDL_WindowData, ptr %116, i32 0, i32 58
  store i8 1, ptr %117, align 1
  %118 = load ptr, ptr %7, align 8
  %119 = load ptr, ptr %11, align 8
  call void @SetFullscreen(ptr noundef %118, ptr noundef %119)
  br label %124

120:                                              ; preds = %107
  %121 = load ptr, ptr %7, align 8
  %122 = call zeroext i1 @ConfigureWindowGeometry(ptr noundef %121)
  %123 = load ptr, ptr %7, align 8
  call void @CommitLibdecorFrame(ptr noundef %123)
  store i32 1, ptr %5, align 4
  store i32 1, ptr %12, align 4
  br label %127

124:                                              ; preds = %115
  br label %125

125:                                              ; preds = %124, %102
  br label %126

126:                                              ; preds = %125, %100
  store i32 2, ptr %5, align 4
  store i32 1, ptr %12, align 4
  br label %127

127:                                              ; preds = %126, %120, %71, %67, %53, %34, %25
  call void @llvm.lifetime.end.p0(i64 8, ptr %11) #10
  call void @llvm.lifetime.end.p0(i64 8, ptr %10) #10
  %128 = load i32, ptr %5, align 4
  ret i32 %128
}