; Function Attrs: nounwind uwtable
define hidden range(i32 0, 3) i32 @Wayland_SetWindowFullscreen(ptr noundef readonly captures(none) %0, ptr noundef %1, ptr noundef readonly captures(none) %2, i32 noundef %3) local_unnamed_addr #0 {
  %5 = getelementptr inbounds nuw i8, ptr %1, i64 392
  %6 = load ptr, ptr %5, align 8
  %7 = getelementptr inbounds nuw i8, ptr %2, i64 128
  %8 = load ptr, ptr %7, align 8
  %9 = getelementptr inbounds nuw i8, ptr %8, i64 8
  %10 = load ptr, ptr %9, align 8
  %11 = getelementptr inbounds nuw i8, ptr %6, i64 88
  %12 = load i32, ptr %11, align 8
  %13 = icmp eq i32 %12, 4
  br i1 %13, label %.thread32, label %14

14:                                               ; preds = %4
  %15 = getelementptr inbounds nuw i8, ptr %6, i64 400
  %16 = load i8, ptr %15, align 8, !range !5, !noundef !6
  %17 = trunc nuw i8 %16 to i1
  %18 = icmp eq i32 %3, 0
  %or.cond = and i1 %18, %17
  br i1 %or.cond, label %.thread32, label %19

19:                                               ; preds = %14
  %20 = getelementptr inbounds nuw i8, ptr %6, i64 402
  %21 = load i8, ptr %20, align 2, !range !5, !noundef !6
  %22 = trunc nuw i8 %21 to i1
  br i1 %22, label %23, label %30

23:                                               ; preds = %19
  %24 = load ptr, ptr @WAYLAND_wl_display_roundtrip, align 8
  %25 = getelementptr inbounds nuw i8, ptr %0, i64 1656
  %26 = load ptr, ptr %25, align 8
  %27 = getelementptr inbounds nuw i8, ptr %26, i64 8
  %28 = load ptr, ptr %27, align 8
  %29 = tail call i32 %24(ptr noundef %28) #15
  br label %30

30:                                               ; preds = %23, %19
  %31 = getelementptr inbounds nuw i8, ptr %6, i64 399
  %32 = load i8, ptr %31, align 1, !range !5, !noundef !6
  %33 = trunc nuw i8 %32 to i1
  br i1 %33, label %.thread32, label %34

34:                                               ; preds = %30
  store i8 1, ptr %31, align 1
  %35 = getelementptr inbounds nuw i8, ptr %1, i64 267
  %36 = load i8, ptr %35, align 1, !range !5, !noundef !6
  %37 = getelementptr inbounds nuw i8, ptr %1, i64 268
  %38 = load i8, ptr %37, align 4, !range !5, !noundef !6
  br label %39

39:                                               ; preds = %.critedge.i, %34
  %40 = load ptr, ptr %5, align 8
  %41 = getelementptr inbounds nuw i8, ptr %40, i64 368
  %42 = load i32, ptr %41, align 8
  %.not.i = icmp eq i32 %42, 0
  br i1 %.not.i, label %43, label %.critedge.i

43:                                               ; preds = %39
  %44 = getelementptr inbounds nuw i8, ptr %40, i64 372
  %45 = load i32, ptr %44, align 4
  %.not8.i = icmp eq i32 %45, 0
  br i1 %.not8.i, label %FlushPendingEvents.exit, label %.critedge.i

.critedge.i:                                      ; preds = %43, %39
  %46 = load ptr, ptr @WAYLAND_wl_display_roundtrip, align 8
  %47 = getelementptr inbounds nuw i8, ptr %40, i64 8
  %48 = load ptr, ptr %47, align 8
  %49 = getelementptr inbounds nuw i8, ptr %48, i64 8
  %50 = load ptr, ptr %49, align 8
  %51 = tail call i32 %46(ptr noundef %50) #15
  br label %39, !llvm.loop !11

FlushPendingEvents.exit:                          ; preds = %43
  store i8 %36, ptr %35, align 1
  store i8 %38, ptr %37, align 4
  store i8 0, ptr %31, align 1
  %52 = getelementptr inbounds nuw i8, ptr %6, i64 397
  %53 = load i8, ptr %52, align 1, !range !5, !noundef !6
  %54 = trunc nuw i8 %53 to i1
  br i1 %54, label %58, label %55

55:                                               ; preds = %FlushPendingEvents.exit
  %56 = icmp eq i32 %3, 2
  %.mux = select i1 %56, i32 2, i32 1
  switch i32 %3, label %.thread.thread [
    i32 2, label %.thread32
    i32 0, label %.thread32
  ]

.thread.thread:                                   ; preds = %55
  %57 = getelementptr inbounds nuw i8, ptr %6, i64 401
  store i8 1, ptr %57, align 1
  br label %62

58:                                               ; preds = %FlushPendingEvents.exit
  %59 = icmp ne i32 %3, 0
  %60 = zext i1 %59 to i8
  %.not = icmp eq i8 %53, %60
  br i1 %.not, label %65, label %.thread

.thread:                                          ; preds = %58
  %61 = getelementptr inbounds nuw i8, ptr %6, i64 401
  store i8 0, ptr %61, align 1
  br i1 %59, label %62, label %63

62:                                               ; preds = %.thread.thread, %.thread
  br label %63

63:                                               ; preds = %.thread, %62
  %64 = phi ptr [ %10, %62 ], [ null, %.thread ]
  tail call fastcc void @SetFullscreen(ptr noundef nonnull %1, ptr noundef %64)
  br label %.thread32

65:                                               ; preds = %58
  %66 = getelementptr inbounds nuw i8, ptr %6, i64 364
  %67 = load i32, ptr %66, align 4
  %68 = load i32, ptr %2, align 8
  %.not30 = icmp eq i32 %67, %68
  br i1 %.not30, label %71, label %69

69:                                               ; preds = %65
  %70 = getelementptr inbounds nuw i8, ptr %6, i64 401
  store i8 1, ptr %70, align 1
  tail call fastcc void @SetFullscreen(ptr noundef nonnull %1, ptr noundef %10)
  br label %.thread32

71:                                               ; preds = %65
  %72 = tail call fastcc zeroext i1 @ConfigureWindowGeometry(ptr noundef nonnull %1)
  br label %.thread32

.thread32:                                        ; preds = %55, %55, %63, %69, %30, %14, %4, %71
  %.0 = phi i32 [ 1, %71 ], [ 0, %4 ], [ 1, %14 ], [ 1, %30 ], [ %.mux, %55 ], [ 2, %69 ], [ 2, %63 ], [ %.mux, %55 ]
  ret i32 %.0
}